target datalayout = "e-m:e-p270:32:32-p271:32:32-p272:64:64-i64:64-i128:128-f80:128-n8:16:32:64-S128"
target triple = "x86_64-unknown-linux-gnu"

%class.unifier = type <{ ptr, ptr, %class.svector, %class.expr_offset_map, %class.expr_offset_map.1, i8, [7 x i8] }>
%class.svector = type { %class.vector }
%class.vector = type { ptr }
%class.expr_offset_map = type <{ %class.vector.0, i32, [4 x i8] }>
%class.vector.0 = type { ptr }
%class.expr_offset_map.1 = type <{ %class.vector.2, i32, [4 x i8] }>
%class.vector.2 = type { ptr }
%"struct.expr_offset_map<expr_offset>::data" = type { %class.expr_offset, i32, [4 x i8] }
%class.expr_offset = type <{ ptr, i32, [4 x i8] }>
%class.svector.52 = type { %class.vector.53 }
%class.vector.53 = type { ptr }
%"struct.expr_offset_map<unsigned int>::data" = type { i32, i32 }
%class.svector.54 = type { %class.vector.55 }
%class.vector.55 = type { ptr }

; Function Attrs: mustprogress nounwind uwtable
define linkonce_odr hidden noundef i32 @_ZNK6vectorIN15expr_offset_mapIjE4dataELb0EjE4sizeEv(ptr noundef nonnull align 8 dereferenceable(8) %this) #5 comdat align 2 {
entry:
  %retval = alloca i32, align 4
  %this.addr = alloca ptr, align 8
  store ptr %this, ptr %this.addr, align 8
  %this1 = load ptr, ptr %this.addr, align 8
  %m_data = getelementptr inbounds %class.vector.55, ptr %this1, i32 0, i32 0
  %0 = load ptr, ptr %m_data, align 8
  %cmp = icmp eq ptr %0, null
  br i1 %cmp, label %if.then, label %if.end

if.then:                                          ; preds = %entry
  store i32 0, ptr %retval, align 4
  br label %return

if.end:                                           ; preds = %entry
  %m_data2 = getelementptr inbounds %class.vector.55, ptr %this1, i32 0, i32 0
  %1 = load ptr, ptr %m_data2, align 8
  %arrayidx = getelementptr inbounds i32, ptr %1, i64 -1
  %2 = load i32, ptr %arrayidx, align 4
  store i32 %2, ptr %retval, align 4
  br label %return

return:                                           ; preds = %if.end, %if.then
  %3 = load i32, ptr %retval, align 4
  ret i32 %3
}

; Function Attrs: mustprogress nounwind uwtable
define linkonce_odr hidden noundef i32 @_ZNK6vectorI7svectorIN15expr_offset_mapIjE4dataEjELb1EjE4sizeEv(ptr noundef nonnull align 8 dereferenceable(8) %this) #5 comdat align 2 {
entry:
  %retval = alloca i32, align 4
  %this.addr = alloca ptr, align 8
  store ptr %this, ptr %this.addr, align 8
  %this1 = load ptr, ptr %this.addr, align 8
  %m_data = getelementptr inbounds %class.vector.2, ptr %this1, i32 0, i32 0
  %0 = load ptr, ptr %m_data, align 8
  %cmp = icmp eq ptr %0, null
  br i1 %cmp, label %if.then, label %if.end

if.then:                                          ; preds = %entry
  store i32 0, ptr %retval, align 4
  br label %return

if.end:                                           ; preds = %entry
  %m_data2 = getelementptr inbounds %class.vector.2, ptr %this1, i32 0, i32 0
  %1 = load ptr, ptr %m_data2, align 8
  %arrayidx = getelementptr inbounds i32, ptr %1, i64 -1
  %2 = load i32, ptr %arrayidx, align 4
  store i32 %2, ptr %retval, align 4
  br label %return

return:                                           ; preds = %if.end, %if.then
  %3 = load i32, ptr %retval, align 4
  ret i32 %3
}

; Function Attrs: mustprogress nounwind uwtable
define linkonce_odr hidden noundef i32 @_ZNK6vectorIN15expr_offset_mapI11expr_offsetE4dataELb0EjE4sizeEv(ptr noundef nonnull align 8 dereferenceable(8) %this) #5 comdat align 2 {
entry:
  %retval = alloca i32, align 4
  %this.addr = alloca ptr, align 8
  store ptr %this, ptr %this.addr, align 8
  %this1 = load ptr, ptr %this.addr, align 8
  %m_data = getelementptr inbounds %class.vector.53, ptr %this1, i32 0, i32 0
  %0 = load ptr, ptr %m_data, align 8
  %cmp = icmp eq ptr %0, null
  br i1 %cmp, label %if.then, label %if.end

if.then:                                          ; preds = %entry
  store i32 0, ptr %retval, align 4
  br label %return

if.end:                                           ; preds = %entry
  %m_data2 = getelementptr inbounds %class.vector.53, ptr %this1, i32 0, i32 0
  %1 = load ptr, ptr %m_data2, align 8
  %arrayidx = getelementptr inbounds i32, ptr %1, i64 -1
  %2 = load i32, ptr %arrayidx, align 4
  store i32 %2, ptr %retval, align 4
  br label %return

return:                                           ; preds = %if.end, %if.then
  %3 = load i32, ptr %retval, align 4
  ret i32 %3
}

; Function Attrs: mustprogress nounwind uwtable
define linkonce_odr hidden noundef i32 @_ZNK6vectorI7svectorIN15expr_offset_mapI11expr_offsetE4dataEjELb1EjE4sizeEv(ptr noundef nonnull align 8 dereferenceable(8) %this) #5 comdat align 2 {
entry:
  %retval = alloca i32, align 4
  %this.addr = alloca ptr, align 8
  store ptr %this, ptr %this.addr, align 8
  %this1 = load ptr, ptr %this.addr, align 8
  %m_data = getelementptr inbounds %class.vector.0, ptr %this1, i32 0, i32 0
  %0 = load ptr, ptr %m_data, align 8
  %cmp = icmp eq ptr %0, null
  br i1 %cmp, label %if.then, label %if.end

if.then:                                          ; preds = %entry
  store i32 0, ptr %retval, align 4
  br label %return

if.end:                                           ; preds = %entry
  %m_data2 = getelementptr inbounds %class.vector.0, ptr %this1, i32 0, i32 0
  %1 = load ptr, ptr %m_data2, align 8
  %arrayidx = getelementptr inbounds i32, ptr %1, i64 -1
  %2 = load i32, ptr %arrayidx, align 4
  store i32 %2, ptr %retval, align 4
  br label %return

return:                                           ; preds = %if.end, %if.then
  %3 = load i32, ptr %retval, align 4
  ret i32 %3
}

; Function Attrs: mustprogress uwtable
define linkonce_odr hidden noundef ptr @_ZN6vectorIN15expr_offset_mapIjE4dataELb0EjE3endEv(ptr noundef nonnull align 8 dereferenceable(8) %this) #4 comdat align 2 {
entry:
  %this.addr = alloca ptr, align 8
  store ptr %this, ptr %this.addr, align 8
  %this1 = load ptr, ptr %this.addr, align 8
  %m_data = getelementptr inbounds %class.vector.55, ptr %this1, i32 0, i32 0
  %0 = load ptr, ptr %m_data, align 8
  %call = call noundef i32 @_ZNK6vectorIN15expr_offset_mapIjE4dataELb0EjE4sizeEv(ptr noundef nonnull align 8 dereferenceable(8) %this1)
  %idx.ext = zext i32 %call to i64
  %add.ptr = getelementptr inbounds %"struct.expr_offset_map<unsigned int>::data", ptr %0, i64 %idx.ext
  ret ptr %add.ptr
}

; Function Attrs: mustprogress nounwind uwtable
define linkonce_odr hidden noundef ptr @_ZN6vectorIN15expr_offset_mapIjE4dataELb0EjE5beginEv(ptr noundef nonnull align 8 dereferenceable(8) %this) #5 comdat align 2 {
entry:
  %this.addr = alloca ptr, align 8
  store ptr %this, ptr %this.addr, align 8
  %this1 = load ptr, ptr %this.addr, align 8
  %m_data = getelementptr inbounds %class.vector.55, ptr %this1, i32 0, i32 0
  %0 = load ptr, ptr %m_data, align 8
  ret ptr %0
}

; Function Attrs: mustprogress uwtable
define linkonce_odr hidden noundef ptr @_ZN6vectorI7svectorIN15expr_offset_mapIjE4dataEjELb1EjE3endEv(ptr noundef nonnull align 8 dereferenceable(8) %this) #4 comdat align 2 {
entry:
  %this.addr = alloca ptr, align 8
  store ptr %this, ptr %this.addr, align 8
  %this1 = load ptr, ptr %this.addr, align 8
  %m_data = getelementptr inbounds %class.vector.2, ptr %this1, i32 0, i32 0
  %0 = load ptr, ptr %m_data, align 8
  %call = call noundef i32 @_ZNK6vectorI7svectorIN15expr_offset_mapIjE4dataEjELb1EjE4sizeEv(ptr noundef nonnull align 8 dereferenceable(8) %this1)
  %idx.ext = zext i32 %call to i64
  %add.ptr = getelementptr inbounds %class.svector.54, ptr %0, i64 %idx.ext
  ret ptr %add.ptr
}

; Function Attrs: mustprogress nounwind uwtable
define linkonce_odr hidden noundef ptr @_ZN6vectorI7svectorIN15expr_offset_mapIjE4dataEjELb1EjE5beginEv(ptr noundef nonnull align 8 dereferenceable(8) %this) #5 comdat align 2 {
entry:
  %this.addr = alloca ptr, align 8
  store ptr %this, ptr %this.addr, align 8
  %this1 = load ptr, ptr %this.addr, align 8
  %m_data = getelementptr inbounds %class.vector.2, ptr %this1, i32 0, i32 0
  %0 = load ptr, ptr %m_data, align 8
  ret ptr %0
}

; Function Attrs: mustprogress uwtable
define linkonce_odr hidden noundef ptr @_ZN6vectorIN15expr_offset_mapI11expr_offsetE4dataELb0EjE3endEv(ptr noundef nonnull align 8 dereferenceable(8) %this) #4 comdat align 2 {
entry:
  %this.addr = alloca ptr, align 8
  store ptr %this, ptr %this.addr, align 8
  %this1 = load ptr, ptr %this.addr, align 8
  %m_data = getelementptr inbounds %class.vector.53, ptr %this1, i32 0, i32 0
  %0 = load ptr, ptr %m_data, align 8
  %call = call noundef i32 @_ZNK6vectorIN15expr_offset_mapI11expr_offsetE4dataELb0EjE4sizeEv(ptr noundef nonnull align 8 dereferenceable(8) %this1)
  %idx.ext = zext i32 %call to i64
  %add.ptr = getelementptr inbounds %"struct.expr_offset_map<expr_offset>::data", ptr %0, i64 %idx.ext
  ret ptr %add.ptr
}

; Function Attrs: mustprogress nounwind uwtable
define linkonce_odr hidden noundef ptr @_ZN6vectorIN15expr_offset_mapI11expr_offsetE4dataELb0EjE5beginEv(ptr noundef nonnull align 8 dereferenceable(8) %this) #5 comdat align 2 {
entry:
  %this.addr = alloca ptr, align 8
  store ptr %this, ptr %this.addr, align 8
  %this1 = load ptr, ptr %this.addr, align 8
  %m_data = getelementptr inbounds %class.vector.53, ptr %this1, i32 0, i32 0
  %0 = load ptr, ptr %m_data, align 8
  ret ptr %0
}

; Function Attrs: mustprogress uwtable
define linkonce_odr hidden noundef ptr @_ZN6vectorI7svectorIN15expr_offset_mapI11expr_offsetE4dataEjELb1EjE3endEv(ptr noundef nonnull align 8 dereferenceable(8) %this) #4 comdat align 2 {
entry:
  %this.addr = alloca ptr, align 8
  store ptr %this, ptr %this.addr, align 8
  %this1 = load ptr, ptr %this.addr, align 8
  %m_data = getelementptr inbounds %class.vector.0, ptr %this1, i32 0, i32 0
  %0 = load ptr, ptr %m_data, align 8
  %call = call noundef i32 @_ZNK6vectorI7svectorIN15expr_offset_mapI11expr_offsetE4dataEjELb1EjE4sizeEv(ptr noundef nonnull align 8 dereferenceable(8) %this1)
  %idx.ext = zext i32 %call to i64
  %add.ptr = getelementptr inbounds %class.svector.52, ptr %0, i64 %idx.ext
  ret ptr %add.ptr
}

; Function Attrs: mustprogress nounwind uwtable
define linkonce_odr hidden noundef ptr @_ZN6vectorI7svectorIN15expr_offset_mapI11expr_offsetE4dataEjELb1EjE5beginEv(ptr noundef nonnull align 8 dereferenceable(8) %this) #5 comdat align 2 {
entry:
  %this.addr = alloca ptr, align 8
  store ptr %this, ptr %this.addr, align 8
  %this1 = load ptr, ptr %this.addr, align 8
  %m_data = getelementptr inbounds %class.vector.0, ptr %this1, i32 0, i32 0
  %0 = load ptr, ptr %m_data, align 8
  ret ptr %0
}

; Function Attrs: mustprogress uwtable
define linkonce_odr hidden void @_ZN15expr_offset_mapIjE5resetEv(ptr noundef nonnull align 8 dereferenceable(12) %this) #4 comdat align 2 {
entry:
  %this.addr = alloca ptr, align 8
  %it = alloca ptr, align 8
  %end = alloca ptr, align 8
  %v = alloca ptr, align 8
  %it2 = alloca ptr, align 8
  %end2 = alloca ptr, align 8
  store ptr %this, ptr %this.addr, align 8
  %this1 = load ptr, ptr %this.addr, align 8
  %m_timestamp = getelementptr inbounds %class.expr_offset_map.1, ptr %this1, i32 0, i32 1
  %0 = load i32, ptr %m_timestamp, align 8
  %inc = add i32 %0, 1
  store i32 %inc, ptr %m_timestamp, align 8
  %m_timestamp2 = getelementptr inbounds %class.expr_offset_map.1, ptr %this1, i32 0, i32 1
  %1 = load i32, ptr %m_timestamp2, align 8
  %cmp = icmp eq i32 %1, -1
  br i1 %cmp, label %if.then, label %if.end

if.then:                                          ; preds = %entry
  %m_map = getelementptr inbounds %class.expr_offset_map.1, ptr %this1, i32 0, i32 0
  %call = call noundef ptr @_ZN6vectorI7svectorIN15expr_offset_mapIjE4dataEjELb1EjE5beginEv(ptr noundef nonnull align 8 dereferenceable(8) %m_map)
  store ptr %call, ptr %it, align 8
  %m_map3 = getelementptr inbounds %class.expr_offset_map.1, ptr %this1, i32 0, i32 0
  %call4 = call noundef ptr @_ZN6vectorI7svectorIN15expr_offset_mapIjE4dataEjELb1EjE3endEv(ptr noundef nonnull align 8 dereferenceable(8) %m_map3)
  store ptr %call4, ptr %end, align 8
  br label %for.cond

for.cond:                                         ; preds = %for.inc12, %if.then
  %2 = load ptr, ptr %it, align 8
  %3 = load ptr, ptr %end, align 8
  %cmp5 = icmp ne ptr %2, %3
  br i1 %cmp5, label %for.body, label %for.end14

for.body:                                         ; preds = %for.cond
  %4 = load ptr, ptr %it, align 8
  store ptr %4, ptr %v, align 8
  %5 = load ptr, ptr %v, align 8
  %call6 = call noundef ptr @_ZN6vectorIN15expr_offset_mapIjE4dataELb0EjE5beginEv(ptr noundef nonnull align 8 dereferenceable(8) %5)
  store ptr %call6, ptr %it2, align 8
  %6 = load ptr, ptr %v, align 8
  %call7 = call noundef ptr @_ZN6vectorIN15expr_offset_mapIjE4dataELb0EjE3endEv(ptr noundef nonnull align 8 dereferenceable(8) %6)
  store ptr %call7, ptr %end2, align 8
  br label %for.cond8

for.cond8:                                        ; preds = %for.inc, %for.body
  %7 = load ptr, ptr %it2, align 8
  %8 = load ptr, ptr %end2, align 8
  %cmp9 = icmp ne ptr %7, %8
  br i1 %cmp9, label %for.body10, label %for.end

for.body10:                                       ; preds = %for.cond8
  %9 = load ptr, ptr %it2, align 8
  %m_timestamp11 = getelementptr inbounds %"struct.expr_offset_map<unsigned int>::data", ptr %9, i32 0, i32 1
  store i32 0, ptr %m_timestamp11, align 4
  br label %for.inc

for.inc:                                          ; preds = %for.body10
  %10 = load ptr, ptr %it2, align 8
  %incdec.ptr = getelementptr inbounds %"struct.expr_offset_map<unsigned int>::data", ptr %10, i32 1
  store ptr %incdec.ptr, ptr %it2, align 8
  br label %for.cond8, !llvm.loop !7

for.end:                                          ; preds = %for.cond8
  br label %for.inc12

for.inc12:                                        ; preds = %for.end
  %11 = load ptr, ptr %it, align 8
  %incdec.ptr13 = getelementptr inbounds %class.svector.54, ptr %11, i32 1
  store ptr %incdec.ptr13, ptr %it, align 8
  br label %for.cond, !llvm.loop !8

for.end14:                                        ; preds = %for.cond
  %m_timestamp15 = getelementptr inbounds %class.expr_offset_map.1, ptr %this1, i32 0, i32 1
  store i32 1, ptr %m_timestamp15, align 8
  br label %if.end

if.end:                                           ; preds = %for.end14, %entry
  ret void
}

; Function Attrs: mustprogress uwtable
define linkonce_odr hidden void @_ZN15expr_offset_mapI11expr_offsetE5resetEv(ptr noundef nonnull align 8 dereferenceable(12) %this) #4 comdat align 2 {
entry:
  %this.addr = alloca ptr, align 8
  %it = alloca ptr, align 8
  %end = alloca ptr, align 8
  %v = alloca ptr, align 8
  %it2 = alloca ptr, align 8
  %end2 = alloca ptr, align 8
  store ptr %this, ptr %this.addr, align 8
  %this1 = load ptr, ptr %this.addr, align 8
  %m_timestamp = getelementptr inbounds %class.expr_offset_map, ptr %this1, i32 0, i32 1
  %0 = load i32, ptr %m_timestamp, align 8
  %inc = add i32 %0, 1
  store i32 %inc, ptr %m_timestamp, align 8
  %m_timestamp2 = getelementptr inbounds %class.expr_offset_map, ptr %this1, i32 0, i32 1
  %1 = load i32, ptr %m_timestamp2, align 8
  %cmp = icmp eq i32 %1, -1
  br i1 %cmp, label %if.then, label %if.end

if.then:                                          ; preds = %entry
  %m_map = getelementptr inbounds %class.expr_offset_map, ptr %this1, i32 0, i32 0
  %call = call noundef ptr @_ZN6vectorI7svectorIN15expr_offset_mapI11expr_offsetE4dataEjELb1EjE5beginEv(ptr noundef nonnull align 8 dereferenceable(8) %m_map)
  store ptr %call, ptr %it, align 8
  %m_map3 = getelementptr inbounds %class.expr_offset_map, ptr %this1, i32 0, i32 0
  %call4 = call noundef ptr @_ZN6vectorI7svectorIN15expr_offset_mapI11expr_offsetE4dataEjELb1EjE3endEv(ptr noundef nonnull align 8 dereferenceable(8) %m_map3)
  store ptr %call4, ptr %end, align 8
  br label %for.cond

for.cond:                                         ; preds = %for.inc12, %if.then
  %2 = load ptr, ptr %it, align 8
  %3 = load ptr, ptr %end, align 8
  %cmp5 = icmp ne ptr %2, %3
  br i1 %cmp5, label %for.body, label %for.end14

for.body:                                         ; preds = %for.cond
  %4 = load ptr, ptr %it, align 8
  store ptr %4, ptr %v, align 8
  %5 = load ptr, ptr %v, align 8
  %call6 = call noundef ptr @_ZN6vectorIN15expr_offset_mapI11expr_offsetE4dataELb0EjE5beginEv(ptr noundef nonnull align 8 dereferenceable(8) %5)
  store ptr %call6, ptr %it2, align 8
  %6 = load ptr, ptr %v, align 8
  %call7 = call noundef ptr @_ZN6vectorIN15expr_offset_mapI11expr_offsetE4dataELb0EjE3endEv(ptr noundef nonnull align 8 dereferenceable(8) %6)
  store ptr %call7, ptr %end2, align 8
  br label %for.cond8

for.cond8:                                        ; preds = %for.inc, %for.body
  %7 = load ptr, ptr %it2, align 8
  %8 = load ptr, ptr %end2, align 8
  %cmp9 = icmp ne ptr %7, %8
  br i1 %cmp9, label %for.body10, label %for.end

for.body10:                                       ; preds = %for.cond8
  %9 = load ptr, ptr %it2, align 8
  %m_timestamp11 = getelementptr inbounds %"struct.expr_offset_map<expr_offset>::data", ptr %9, i32 0, i32 1
  store i32 0, ptr %m_timestamp11, align 8
  br label %for.inc

for.inc:                                          ; preds = %for.body10
  %10 = load ptr, ptr %it2, align 8
  %incdec.ptr = getelementptr inbounds %"struct.expr_offset_map<expr_offset>::data", ptr %10, i32 1
  store ptr %incdec.ptr, ptr %it2, align 8
  br label %for.cond8, !llvm.loop !4

for.end:                                          ; preds = %for.cond8
  br label %for.inc12

for.inc12:                                        ; preds = %for.end
  %11 = load ptr, ptr %it, align 8
  %incdec.ptr13 = getelementptr inbounds %class.svector.52, ptr %11, i32 1
  store ptr %incdec.ptr13, ptr %it, align 8
  br label %for.cond, !llvm.loop !6

for.end14:                                        ; preds = %for.cond
  %m_timestamp15 = getelementptr inbounds %class.expr_offset_map, ptr %this1, i32 0, i32 1
  store i32 1, ptr %m_timestamp15, align 8
  br label %if.end

if.end:                                           ; preds = %for.end14, %entry
  ret void
}

; Function Attrs: mustprogress nounwind uwtable
define linkonce_odr hidden void @_ZN6vectorISt4pairI11expr_offsetS1_ELb0EjE5resetEv(ptr noundef nonnull align 8 dereferenceable(8) %this) #5 comdat align 2 {
entry:
  %this.addr = alloca ptr, align 8
  store ptr %this, ptr %this.addr, align 8
  %this1 = load ptr, ptr %this.addr, align 8
  %m_data = getelementptr inbounds %class.vector, ptr %this1, i32 0, i32 0
  %0 = load ptr, ptr %m_data, align 8
  %tobool = icmp ne ptr %0, null
  br i1 %tobool, label %if.then, label %if.end

if.then:                                          ; preds = %entry
  %m_data2 = getelementptr inbounds %class.vector, ptr %this1, i32 0, i32 0
  %1 = load ptr, ptr %m_data2, align 8
  %arrayidx = getelementptr inbounds i32, ptr %1, i64 -1
  store i32 0, ptr %arrayidx, align 4
  br label %if.end

if.end:                                           ; preds = %if.then, %entry
  ret void
}

; Function Attrs: mustprogress uwtable
define hidden void @_ZN7unifier5resetEj(ptr noundef nonnull align 8 dereferenceable(57) %this, i32 noundef %num_offsets) #4 align 2 {
entry:
  %this.addr = alloca ptr, align 8
  %num_offsets.addr = alloca i32, align 4
  store ptr %this, ptr %this.addr, align 8
  store i32 %num_offsets, ptr %num_offsets.addr, align 4
  %this1 = load ptr, ptr %this.addr, align 8
  %m_todo = getelementptr inbounds %class.unifier, ptr %this1, i32 0, i32 2
  call void @_ZN6vectorISt4pairI11expr_offsetS1_ELb0EjE5resetEv(ptr noundef nonnull align 8 dereferenceable(8) %m_todo)
  %m_find = getelementptr inbounds %class.unifier, ptr %this1, i32 0, i32 3
  call void @_ZN15expr_offset_mapI11expr_offsetE5resetEv(ptr noundef nonnull align 8 dereferenceable(12) %m_find)
  %m_size = getelementptr inbounds %class.unifier, ptr %this1, i32 0, i32 4
  call void @_ZN15expr_offset_mapIjE5resetEv(ptr noundef nonnull align 8 dereferenceable(12) %m_size)
  ret void
}