; Function Attrs: mustprogress nofree norecurse nosync nounwind memory(readwrite, inaccessiblemem: none) uwtable
define hidden void @_ZN7unifier5resetEj(ptr nocapture noundef nonnull align 8 dereferenceable(57) %this, i32 noundef %num_offsets) local_unnamed_addr #3 align 2 {
entry:
  %m_todo = getelementptr inbounds i8, ptr %this, i64 16
  %0 = load ptr, ptr %m_todo, align 8
  %tobool.not.i = icmp eq ptr %0, null
  br i1 %tobool.not.i, label %_ZN6vectorISt4pairI11expr_offsetS1_ELb0EjE5resetEv.exit, label %if.then.i

if.then.i:                                        ; preds = %entry
  %arrayidx.i = getelementptr inbounds i8, ptr %0, i64 -4
  store i32 0, ptr %arrayidx.i, align 4
  br label %_ZN6vectorISt4pairI11expr_offsetS1_ELb0EjE5resetEv.exit

_ZN6vectorISt4pairI11expr_offsetS1_ELb0EjE5resetEv.exit: ; preds = %entry, %if.then.i
  %m_timestamp.i = getelementptr inbounds i8, ptr %this, i64 32
  %1 = load i32, ptr %m_timestamp.i, align 8
  %inc.i = add i32 %1, 1
  store i32 %inc.i, ptr %m_timestamp.i, align 8
  %cmp.i = icmp eq i32 %inc.i, -1
  br i1 %cmp.i, label %if.then.i1, label %_ZN15expr_offset_mapI11expr_offsetE5resetEv.exit

if.then.i1:                                       ; preds = %_ZN6vectorISt4pairI11expr_offsetS1_ELb0EjE5resetEv.exit
  %m_find = getelementptr inbounds i8, ptr %this, i64 24
  %2 = load ptr, ptr %m_find, align 8
  %cmp.i.i.i = icmp eq ptr %2, null
  br i1 %cmp.i.i.i, label %for.end14.i, label %_ZN6vectorI7svectorIN15expr_offset_mapI11expr_offsetE4dataEjELb1EjE3endEv.exit.i

_ZN6vectorI7svectorIN15expr_offset_mapI11expr_offsetE4dataEjELb1EjE3endEv.exit.i: ; preds = %if.then.i1
  %arrayidx.i.i.i = getelementptr inbounds i8, ptr %2, i64 -4
  %3 = load i32, ptr %arrayidx.i.i.i, align 4
  %4 = zext i32 %3 to i64
  %add.ptr.i.i = getelementptr inbounds %class.svector.52, ptr %2, i64 %4
  %cmp5.not13.i = icmp eq i32 %3, 0
  br i1 %cmp5.not13.i, label %for.end14.i, label %for.body.i

for.body.i:                                       ; preds = %_ZN6vectorI7svectorIN15expr_offset_mapI11expr_offsetE4dataEjELb1EjE3endEv.exit.i, %for.inc12.i
  %it.014.i = phi ptr [ %incdec.ptr13.i, %for.inc12.i ], [ %2, %_ZN6vectorI7svectorIN15expr_offset_mapI11expr_offsetE4dataEjELb1EjE3endEv.exit.i ]
  %5 = load ptr, ptr %it.014.i, align 8
  %cmp.i.i6.i = icmp eq ptr %5, null
  br i1 %cmp.i.i6.i, label %for.inc12.i, label %_ZN6vectorIN15expr_offset_mapI11expr_offsetE4dataELb0EjE3endEv.exit.i

_ZN6vectorIN15expr_offset_mapI11expr_offsetE4dataELb0EjE3endEv.exit.i: ; preds = %for.body.i
  %arrayidx.i.i8.i = getelementptr inbounds i8, ptr %5, i64 -4
  %6 = load i32, ptr %arrayidx.i.i8.i, align 4
  %7 = zext i32 %6 to i64
  %add.ptr.i10.i = getelementptr inbounds %"struct.expr_offset_map<expr_offset>::data", ptr %5, i64 %7
  %cmp9.not11.i = icmp eq i32 %6, 0
  br i1 %cmp9.not11.i, label %for.inc12.i, label %for.body10.i

for.body10.i:                                     ; preds = %_ZN6vectorIN15expr_offset_mapI11expr_offsetE4dataELb0EjE3endEv.exit.i, %for.body10.i
  %it2.012.i = phi ptr [ %incdec.ptr.i, %for.body10.i ], [ %5, %_ZN6vectorIN15expr_offset_mapI11expr_offsetE4dataELb0EjE3endEv.exit.i ]
  %m_timestamp11.i = getelementptr inbounds i8, ptr %it2.012.i, i64 16
  store i32 0, ptr %m_timestamp11.i, align 8
  %incdec.ptr.i = getelementptr inbounds i8, ptr %it2.012.i, i64 24
  %cmp9.not.i = icmp eq ptr %incdec.ptr.i, %add.ptr.i10.i
  br i1 %cmp9.not.i, label %for.inc12.i, label %for.body10.i, !llvm.loop !4

for.inc12.i:                                      ; preds = %for.body10.i, %_ZN6vectorIN15expr_offset_mapI11expr_offsetE4dataELb0EjE3endEv.exit.i, %for.body.i
  %incdec.ptr13.i = getelementptr inbounds i8, ptr %it.014.i, i64 8
  %cmp5.not.i = icmp eq ptr %incdec.ptr13.i, %add.ptr.i.i
  br i1 %cmp5.not.i, label %for.end14.i, label %for.body.i, !llvm.loop !6

for.end14.i:                                      ; preds = %for.inc12.i, %_ZN6vectorI7svectorIN15expr_offset_mapI11expr_offsetE4dataEjELb1EjE3endEv.exit.i, %if.then.i1
  store i32 1, ptr %m_timestamp.i, align 8
  br label %_ZN15expr_offset_mapI11expr_offsetE5resetEv.exit

_ZN15expr_offset_mapI11expr_offsetE5resetEv.exit: ; preds = %_ZN6vectorISt4pairI11expr_offsetS1_ELb0EjE5resetEv.exit, %for.end14.i
  %m_timestamp.i2 = getelementptr inbounds i8, ptr %this, i64 48
  %8 = load i32, ptr %m_timestamp.i2, align 8
  %inc.i3 = add i32 %8, 1
  store i32 %inc.i3, ptr %m_timestamp.i2, align 8
  %cmp.i4 = icmp eq i32 %inc.i3, -1
  br i1 %cmp.i4, label %if.then.i5, label %_ZN15expr_offset_mapIjE5resetEv.exit

if.then.i5:                                       ; preds = %_ZN15expr_offset_mapI11expr_offsetE5resetEv.exit
  %m_size = getelementptr inbounds i8, ptr %this, i64 40
  %9 = load ptr, ptr %m_size, align 8
  %cmp.i.i.i6 = icmp eq ptr %9, null
  br i1 %cmp.i.i.i6, label %for.end14.i24, label %_ZN6vectorI7svectorIN15expr_offset_mapIjE4dataEjELb1EjE3endEv.exit.i

_ZN6vectorI7svectorIN15expr_offset_mapIjE4dataEjELb1EjE3endEv.exit.i: ; preds = %if.then.i5
  %arrayidx.i.i.i7 = getelementptr inbounds i8, ptr %9, i64 -4
  %10 = load i32, ptr %arrayidx.i.i.i7, align 4
  %11 = zext i32 %10 to i64
  %add.ptr.i.i8 = getelementptr inbounds %class.svector.54, ptr %9, i64 %11
  %cmp5.not13.i9 = icmp eq i32 %10, 0
  br i1 %cmp5.not13.i9, label %for.end14.i24, label %for.body.i10

for.body.i10:                                     ; preds = %_ZN6vectorI7svectorIN15expr_offset_mapIjE4dataEjELb1EjE3endEv.exit.i, %for.inc12.i21
  %it.014.i11 = phi ptr [ %incdec.ptr13.i22, %for.inc12.i21 ], [ %9, %_ZN6vectorI7svectorIN15expr_offset_mapIjE4dataEjELb1EjE3endEv.exit.i ]
  %12 = load ptr, ptr %it.014.i11, align 8
  %cmp.i.i6.i12 = icmp eq ptr %12, null
  br i1 %cmp.i.i6.i12, label %for.inc12.i21, label %_ZN6vectorIN15expr_offset_mapIjE4dataELb0EjE3endEv.exit.i

_ZN6vectorIN15expr_offset_mapIjE4dataELb0EjE3endEv.exit.i: ; preds = %for.body.i10
  %arrayidx.i.i8.i13 = getelementptr inbounds i8, ptr %12, i64 -4
  %13 = load i32, ptr %arrayidx.i.i8.i13, align 4
  %14 = zext i32 %13 to i64
  %add.ptr.i10.i14 = getelementptr inbounds %"struct.expr_offset_map<unsigned int>::data", ptr %12, i64 %14
  %cmp9.not11.i15 = icmp eq i32 %13, 0
  br i1 %cmp9.not11.i15, label %for.inc12.i21, label %for.body10.i16

for.body10.i16:                                   ; preds = %_ZN6vectorIN15expr_offset_mapIjE4dataELb0EjE3endEv.exit.i, %for.body10.i16
  %it2.012.i17 = phi ptr [ %incdec.ptr.i19, %for.body10.i16 ], [ %12, %_ZN6vectorIN15expr_offset_mapIjE4dataELb0EjE3endEv.exit.i ]
  %m_timestamp11.i18 = getelementptr inbounds i8, ptr %it2.012.i17, i64 4
  store i32 0, ptr %m_timestamp11.i18, align 4
  %incdec.ptr.i19 = getelementptr inbounds i8, ptr %it2.012.i17, i64 8
  %cmp9.not.i20 = icmp eq ptr %incdec.ptr.i19, %add.ptr.i10.i14
  br i1 %cmp9.not.i20, label %for.inc12.i21, label %for.body10.i16, !llvm.loop !7

for.inc12.i21:                                    ; preds = %for.body10.i16, %_ZN6vectorIN15expr_offset_mapIjE4dataELb0EjE3endEv.exit.i, %for.body.i10
  %incdec.ptr13.i22 = getelementptr inbounds i8, ptr %it.014.i11, i64 8
  %cmp5.not.i23 = icmp eq ptr %incdec.ptr13.i22, %add.ptr.i.i8
  br i1 %cmp5.not.i23, label %for.end14.i24, label %for.body.i10, !llvm.loop !8

for.end14.i24:                                    ; preds = %for.inc12.i21, %_ZN6vectorI7svectorIN15expr_offset_mapIjE4dataEjELb1EjE3endEv.exit.i, %if.then.i5
  store i32 1, ptr %m_timestamp.i2, align 8
  br label %_ZN15expr_offset_mapIjE5resetEv.exit

_ZN15expr_offset_mapIjE5resetEv.exit:             ; preds = %_ZN15expr_offset_mapI11expr_offsetE5resetEv.exit, %for.end14.i24
  ret void
}